; Function Attrs: mustprogress uwtable
define internal noundef zeroext i1 @_ZNSt17_Function_handlerIFSt8optionalIN32pxrInternal_v0_24__pxrReserved__12SdfReferenceEENS1_13SdfListOpTypeERKS2_EZNS1_L35_PcpComposeSiteReferencesOrPayloadsIS2_EEvRKNS1_7TfTokenERKNS1_8TfRefPtrINS1_13PcpLayerStackEEERKNS1_7SdfPathEPSt6vectorIT_SaISL_EEPSK_INS1_10PcpArcInfoESaISP_EEPSt13unordered_setINSt7__cxx1112basic_stringIcSt11char_traitsIcESaIcEEESt4hashISZ_ESt8equal_toISZ_ESaISZ_EEPSK_ISt10shared_ptrINS1_12PcpErrorBaseEESaIS19_EEEUlS4_S6_E_E10_M_managerERSt9_Any_dataRKS1F_St18_Manager_operation(ptr noundef nonnull align 8 captures(none) dereferenceable(16) %0, ptr noundef nonnull readonly align 8 captures(none) dereferenceable(16) %1, i32 noundef %2) #0 align 2 {
  switch i32 %2, label %_ZNSt14_Function_base13_Base_managerIZN32pxrInternal_v0_24__pxrReserved__L35_PcpComposeSiteReferencesOrPayloadsINS1_12SdfReferenceEEEvRKNS1_7TfTokenERKNS1_8TfRefPtrINS1_13PcpLayerStackEEERKNS1_7SdfPathEPSt6vectorIT_SaISG_EEPSF_INS1_10PcpArcInfoESaISK_EEPSt13unordered_setINSt7__cxx1112basic_stringIcSt11char_traitsIcESaIcEEESt4hashISU_ESt8equal_toISU_ESaISU_EEPSF_ISt10shared_ptrINS1_12PcpErrorBaseEESaIS14_EEEUlNS1_13SdfListOpTypeERKS3_E_E10_M_managerERSt9_Any_dataRKS1D_St18_Manager_operation.exit [
    i32 0, label %4
    i32 1, label %5
    i32 3, label %8
    i32 2, label %6
  ]

4:                                                ; preds = %3
  store ptr @_ZTIZN32pxrInternal_v0_24__pxrReserved__L35_PcpComposeSiteReferencesOrPayloadsINS_12SdfReferenceEEEvRKNS_7TfTokenERKNS_8TfRefPtrINS_13PcpLayerStackEEERKNS_7SdfPathEPSt6vectorIT_SaISE_EEPSD_INS_10PcpArcInfoESaISI_EEPSt13unordered_setINSt7__cxx1112basic_stringIcSt11char_traitsIcESaIcEEESt4hashISS_ESt8equal_toISS_ESaISS_EEPSD_ISt10shared_ptrINS_12PcpErrorBaseEESaIS12_EEEUlNS_13SdfListOpTypeERKS1_E_, ptr %0, align 8
  br label %_ZNSt14_Function_base13_Base_managerIZN32pxrInternal_v0_24__pxrReserved__L35_PcpComposeSiteReferencesOrPayloadsINS1_12SdfReferenceEEEvRKNS1_7TfTokenERKNS1_8TfRefPtrINS1_13PcpLayerStackEEERKNS1_7SdfPathEPSt6vectorIT_SaISG_EEPSF_INS1_10PcpArcInfoESaISK_EEPSt13unordered_setINSt7__cxx1112basic_stringIcSt11char_traitsIcESaIcEEESt4hashISU_ESt8equal_toISU_ESaISU_EEPSF_ISt10shared_ptrINS1_12PcpErrorBaseEESaIS14_EEEUlNS1_13SdfListOpTypeERKS3_E_E10_M_managerERSt9_Any_dataRKS1D_St18_Manager_operation.exit

5:                                                ; preds = %3
  %.val = load ptr, ptr %1, align 8
  store ptr %.val, ptr %0, align 8
  br label %_ZNSt14_Function_base13_Base_managerIZN32pxrInternal_v0_24__pxrReserved__L35_PcpComposeSiteReferencesOrPayloadsINS1_12SdfReferenceEEEvRKNS1_7TfTokenERKNS1_8TfRefPtrINS1_13PcpLayerStackEEERKNS1_7SdfPathEPSt6vectorIT_SaISG_EEPSF_INS1_10PcpArcInfoESaISK_EEPSt13unordered_setINSt7__cxx1112basic_stringIcSt11char_traitsIcESaIcEEESt4hashISU_ESt8equal_toISU_ESaISU_EEPSF_ISt10shared_ptrINS1_12PcpErrorBaseEESaIS14_EEEUlNS1_13SdfListOpTypeERKS3_E_E10_M_managerERSt9_Any_dataRKS1D_St18_Manager_operation.exit

6:                                                ; preds = %3
  %.val6 = load ptr, ptr %1, align 8
  %7 = tail call noalias noundef nonnull dereferenceable(56) ptr @_Znwm(i64 noundef 56) #21
  tail call void @llvm.memcpy.p0.p0.i64(ptr noundef nonnull align 16 dereferenceable(56) %7, ptr noundef nonnull readonly align 8 dereferenceable(56) %.val6, i64 56, i1 false)
  store ptr %7, ptr %0, align 8
  br label %_ZNSt14_Function_base13_Base_managerIZN32pxrInternal_v0_24__pxrReserved__L35_PcpComposeSiteReferencesOrPayloadsINS1_12SdfReferenceEEEvRKNS1_7TfTokenERKNS1_8TfRefPtrINS1_13PcpLayerStackEEERKNS1_7SdfPathEPSt6vectorIT_SaISG_EEPSF_INS1_10PcpArcInfoESaISK_EEPSt13unordered_setINSt7__cxx1112basic_stringIcSt11char_traitsIcESaIcEEESt4hashISU_ESt8equal_toISU_ESaISU_EEPSF_ISt10shared_ptrINS1_12PcpErrorBaseEESaIS14_EEEUlNS1_13SdfListOpTypeERKS3_E_E10_M_managerERSt9_Any_dataRKS1D_St18_Manager_operation.exit

8:                                                ; preds = %3
  %.val7.i = load ptr, ptr %0, align 8
  %9 = icmp eq ptr %.val7.i, null
  br i1 %9, label %_ZNSt14_Function_base13_Base_managerIZN32pxrInternal_v0_24__pxrReserved__L35_PcpComposeSiteReferencesOrPayloadsINS1_12SdfReferenceEEEvRKNS1_7TfTokenERKNS1_8TfRefPtrINS1_13PcpLayerStackEEERKNS1_7SdfPathEPSt6vectorIT_SaISG_EEPSF_INS1_10PcpArcInfoESaISK_EEPSt13unordered_setINSt7__cxx1112basic_stringIcSt11char_traitsIcESaIcEEESt4hashISU_ESt8equal_toISU_ESaISU_EEPSF_ISt10shared_ptrINS1_12PcpErrorBaseEESaIS14_EEEUlNS1_13SdfListOpTypeERKS3_E_E10_M_managerERSt9_Any_dataRKS1D_St18_Manager_operation.exit, label %10

10:                                               ; preds = %8
  tail call void @_ZdlPvm(ptr noundef nonnull %.val7.i, i64 noundef 56) #22
  br label %_ZNSt14_Function_base13_Base_managerIZN32pxrInternal_v0_24__pxrReserved__L35_PcpComposeSiteReferencesOrPayloadsINS1_12SdfReferenceEEEvRKNS1_7TfTokenERKNS1_8TfRefPtrINS1_13PcpLayerStackEEERKNS1_7SdfPathEPSt6vectorIT_SaISG_EEPSF_INS1_10PcpArcInfoESaISK_EEPSt13unordered_setINSt7__cxx1112basic_stringIcSt11char_traitsIcESaIcEEESt4hashISU_ESt8equal_toISU_ESaISU_EEPSF_ISt10shared_ptrINS1_12PcpErrorBaseEESaIS14_EEEUlNS1_13SdfListOpTypeERKS3_E_E10_M_managerERSt9_Any_dataRKS1D_St18_Manager_operation.exit

_ZNSt14_Function_base13_Base_managerIZN32pxrInternal_v0_24__pxrReserved__L35_PcpComposeSiteReferencesOrPayloadsINS1_12SdfReferenceEEEvRKNS1_7TfTokenERKNS1_8TfRefPtrINS1_13PcpLayerStackEEERKNS1_7SdfPathEPSt6vectorIT_SaISG_EEPSF_INS1_10PcpArcInfoESaISK_EEPSt13unordered_setINSt7__cxx1112basic_stringIcSt11char_traitsIcESaIcEEESt4hashISU_ESt8equal_toISU_ESaISU_EEPSF_ISt10shared_ptrINS1_12PcpErrorBaseEESaIS14_EEEUlNS1_13SdfListOpTypeERKS3_E_E10_M_managerERSt9_Any_dataRKS1D_St18_Manager_operation.exit: ; preds = %3, %10, %8, %6, %5, %4
  ret i1 false
}